(dp0
S'Falco_'
p1
VS
p2
sS'Roy_'
p3
VF
p4
sS'Pikachu_'
p5
VC
p6
sS'Dr._Mario_'
p7
VD
p8
sS'Bowser_'
p9
VG
p10
sS'Pichu_'
p11
g10
sS'Kirby_'
p12
g10
sS'Marth_'
p13
g2
sS'Samus_'
p14
g6
sS'Luigi_'
p15
g8
sS'Captain_Falcon_'
p16
VB
p17
sS'Fox_'
p18
g2
sS'Yoshi_'
p19
g8
sS'Ganondorf_'
p20
VE
p21
sS'Zelda_'
p22
g4
sS'Mario_'
p23
g21
sS'Link_'
p24
g21
sS'Donkey_Kong_'
p25
g21
sS'Young_Link_'
p26
g21
sS'Ice_Climbers_'
p27
g17
sS'Ness_'
p28
g4
sS'Mewtwo_'
p29
g4
sS'Sheik_'
p30
g2
sS'Mr._Game_%26_Watch_'
p31
g4
sS'Peach_'
p32
VA
p33
s.